; Function Attrs: mustprogress nofree norecurse nosync nounwind willreturn memory(read, inaccessiblemem: none) uwtable
define hidden noundef ptr @_ZN7oopDesc12load_oop_rawEPS_i(ptr noundef %0, i32 noundef %1) local_unnamed_addr #3 align 2 {
  %3 = ptrtoint ptr %0 to i64
  %4 = zext i32 %1 to i64
  %5 = add i64 %4, %3
  %6 = load i8, ptr @UseCompressedOops, align 1
  %7 = trunc i8 %6 to i1
  %8 = inttoptr i64 %5 to ptr
  br i1 %7, label %9, label %21

9:                                                ; preds = %2
  %10 = load i32, ptr %8, align 4
  %11 = icmp eq i32 %10, 0
  br i1 %11, label %23, label %12

12:                                               ; preds = %9
  %13 = load ptr, ptr @_ZN14CompressedOops11_narrow_oopE, align 8
  %14 = ptrtoint ptr %13 to i64
  %15 = zext i32 %10 to i64
  %16 = load i32, ptr getelementptr inbounds (i8, ptr @_ZN14CompressedOops11_narrow_oopE, i64 8), align 8
  %17 = zext nneg i32 %16 to i64
  %18 = shl i64 %15, %17
  %19 = add i64 %18, %14
  %20 = inttoptr i64 %19 to ptr
  br label %23

21:                                               ; preds = %2
  %22 = load ptr, ptr %8, align 8
  br label %23

23:                                               ; preds = %9, %21, %12
  %.0 = phi ptr [ %20, %12 ], [ %22, %21 ], [ null, %9 ]
  ret ptr %.0
}